
Traffic_signal_and_DCmotor.elf:     file format elf32-avr

Sections:
Idx Name          Size      VMA       LMA       File off  Algn
  0 .data         00000000  00800100  00800100  00000280  2**0
                  CONTENTS, ALLOC, LOAD, DATA
  1 .text         0000020c  00000000  00000000  00000074  2**1
                  CONTENTS, ALLOC, LOAD, READONLY, CODE
  2 .bss          00000001  00800100  00800100  00000280  2**0
                  ALLOC
  3 .comment      00000030  00000000  00000000  00000280  2**0
                  CONTENTS, READONLY
  4 .note.gnu.avr.deviceinfo 00000040  00000000  00000000  000002b0  2**2
                  CONTENTS, READONLY
  5 .debug_aranges 00000068  00000000  00000000  000002f0  2**0
                  CONTENTS, READONLY, DEBUGGING
  6 .debug_info   000008fa  00000000  00000000  00000358  2**0
                  CONTENTS, READONLY, DEBUGGING
  7 .debug_abbrev 000006b2  00000000  00000000  00000c52  2**0
                  CONTENTS, READONLY, DEBUGGING
  8 .debug_line   000003e4  00000000  00000000  00001304  2**0
                  CONTENTS, READONLY, DEBUGGING
  9 .debug_frame  000000c4  00000000  00000000  000016e8  2**2
                  CONTENTS, READONLY, DEBUGGING
 10 .debug_str    000003d8  00000000  00000000  000017ac  2**0
                  CONTENTS, READONLY, DEBUGGING
 11 .debug_loc    00000084  00000000  00000000  00001b84  2**0
                  CONTENTS, READONLY, DEBUGGING
 12 .debug_ranges 00000058  00000000  00000000  00001c08  2**0
                  CONTENTS, READONLY, DEBUGGING

Disassembly of section .text:

00000000 <__vectors>:
   0:	0c 94 34 00 	jmp	0x68	; 0x68 <__ctors_end>
   4:	0c 94 55 00 	jmp	0xaa	; 0xaa <__vector_1>
   8:	0c 94 46 00 	jmp	0x8c	; 0x8c <__bad_interrupt>
   c:	0c 94 46 00 	jmp	0x8c	; 0x8c <__bad_interrupt>
  10:	0c 94 46 00 	jmp	0x8c	; 0x8c <__bad_interrupt>
  14:	0c 94 46 00 	jmp	0x8c	; 0x8c <__bad_interrupt>
  18:	0c 94 46 00 	jmp	0x8c	; 0x8c <__bad_interrupt>
  1c:	0c 94 46 00 	jmp	0x8c	; 0x8c <__bad_interrupt>
  20:	0c 94 46 00 	jmp	0x8c	; 0x8c <__bad_interrupt>
  24:	0c 94 46 00 	jmp	0x8c	; 0x8c <__bad_interrupt>
  28:	0c 94 46 00 	jmp	0x8c	; 0x8c <__bad_interrupt>
  2c:	0c 94 46 00 	jmp	0x8c	; 0x8c <__bad_interrupt>
  30:	0c 94 46 00 	jmp	0x8c	; 0x8c <__bad_interrupt>
  34:	0c 94 46 00 	jmp	0x8c	; 0x8c <__bad_interrupt>
  38:	0c 94 46 00 	jmp	0x8c	; 0x8c <__bad_interrupt>
  3c:	0c 94 46 00 	jmp	0x8c	; 0x8c <__bad_interrupt>
  40:	0c 94 46 00 	jmp	0x8c	; 0x8c <__bad_interrupt>
  44:	0c 94 46 00 	jmp	0x8c	; 0x8c <__bad_interrupt>
  48:	0c 94 46 00 	jmp	0x8c	; 0x8c <__bad_interrupt>
  4c:	0c 94 46 00 	jmp	0x8c	; 0x8c <__bad_interrupt>
  50:	0c 94 46 00 	jmp	0x8c	; 0x8c <__bad_interrupt>
  54:	0c 94 46 00 	jmp	0x8c	; 0x8c <__bad_interrupt>
  58:	0c 94 46 00 	jmp	0x8c	; 0x8c <__bad_interrupt>
  5c:	0c 94 46 00 	jmp	0x8c	; 0x8c <__bad_interrupt>
  60:	0c 94 46 00 	jmp	0x8c	; 0x8c <__bad_interrupt>
  64:	0c 94 46 00 	jmp	0x8c	; 0x8c <__bad_interrupt>

00000068 <__ctors_end>:
  68:	11 24       	eor	r1, r1
  6a:	1f be       	out	0x3f, r1	; 63
  6c:	cf ef       	ldi	r28, 0xFF	; 255
  6e:	d8 e0       	ldi	r29, 0x08	; 8
  70:	de bf       	out	0x3e, r29	; 62
  72:	cd bf       	out	0x3d, r28	; 61

00000074 <__do_clear_bss>:
  74:	21 e0       	ldi	r18, 0x01	; 1
  76:	a0 e0       	ldi	r26, 0x00	; 0
  78:	b1 e0       	ldi	r27, 0x01	; 1
  7a:	01 c0       	rjmp	.+2      	; 0x7e <.do_clear_bss_start>

0000007c <.do_clear_bss_loop>:
  7c:	1d 92       	st	X+, r1

0000007e <.do_clear_bss_start>:
  7e:	a1 30       	cpi	r26, 0x01	; 1
  80:	b2 07       	cpc	r27, r18
  82:	e1 f7       	brne	.-8      	; 0x7c <.do_clear_bss_loop>
  84:	0e 94 97 00 	call	0x12e	; 0x12e <main>
  88:	0c 94 04 01 	jmp	0x208	; 0x208 <_exit>

0000008c <__bad_interrupt>:
  8c:	0c 94 00 00 	jmp	0	; 0x0 <__vectors>

00000090 <delay>:
volatile uint8_t int0_flag = 0;


void delay(uint16_t ms)                // user defined function for 1sec delay
{
	while (ms--)
  90:	06 c0       	rjmp	.+12     	; 0x9e <delay+0xe>
	{
		while(!(TIFR0&(1<<OCF0A)));
  92:	a9 9b       	sbis	0x15, 1	; 21
  94:	fe cf       	rjmp	.-4      	; 0x92 <delay+0x2>
		TIFR0|=(1<<OCF0A);
  96:	85 b3       	in	r24, 0x15	; 21
  98:	82 60       	ori	r24, 0x02	; 2
  9a:	85 bb       	out	0x15, r24	; 21
volatile uint8_t int0_flag = 0;


void delay(uint16_t ms)                // user defined function for 1sec delay
{
	while (ms--)
  9c:	c9 01       	movw	r24, r18
  9e:	9c 01       	movw	r18, r24
  a0:	21 50       	subi	r18, 0x01	; 1
  a2:	31 09       	sbc	r19, r1
  a4:	89 2b       	or	r24, r25
  a6:	a9 f7       	brne	.-22     	; 0x92 <delay+0x2>
	{
		while(!(TIFR0&(1<<OCF0A)));
		TIFR0|=(1<<OCF0A);
	}
}
  a8:	08 95       	ret

000000aa <__vector_1>:

ISR(INT0_vect)                     // ISR for change from normal state to interrupt state
{
  aa:	1f 92       	push	r1
  ac:	0f 92       	push	r0
  ae:	0f b6       	in	r0, 0x3f	; 63
  b0:	0f 92       	push	r0
  b2:	11 24       	eor	r1, r1
  b4:	8f 93       	push	r24
	int0_flag = 1;
  b6:	81 e0       	ldi	r24, 0x01	; 1
  b8:	80 93 00 01 	sts	0x0100, r24	; 0x800100 <__DATA_REGION_ORIGIN__>
}
  bc:	8f 91       	pop	r24
  be:	0f 90       	pop	r0
  c0:	0f be       	out	0x3f, r0	; 63
  c2:	0f 90       	pop	r0
  c4:	1f 90       	pop	r1
  c6:	18 95       	reti

000000c8 <red>:
		
	}
}
void red()                     // function for RED LED
{
	PORTB|=(1<<PB5);
  c8:	85 b1       	in	r24, 0x05	; 5
  ca:	80 62       	ori	r24, 0x20	; 32
  cc:	85 b9       	out	0x05, r24	; 5
	PORTB&=~(1<<PB4);
  ce:	85 b1       	in	r24, 0x05	; 5
  d0:	8f 7e       	andi	r24, 0xEF	; 239
  d2:	85 b9       	out	0x05, r24	; 5
	PORTB&=~(1<<PB3);
  d4:	85 b1       	in	r24, 0x05	; 5
  d6:	87 7f       	andi	r24, 0xF7	; 247
  d8:	85 b9       	out	0x05, r24	; 5
  da:	08 95       	ret

000000dc <orange>:
}
void orange()                // function for orange LED
{
	PORTB&=~(1<<PB5);
  dc:	85 b1       	in	r24, 0x05	; 5
  de:	8f 7d       	andi	r24, 0xDF	; 223
  e0:	85 b9       	out	0x05, r24	; 5
	PORTB|=(1<<PB4);
  e2:	85 b1       	in	r24, 0x05	; 5
  e4:	80 61       	ori	r24, 0x10	; 16
  e6:	85 b9       	out	0x05, r24	; 5
	PORTB&=~(1<<PB3);
  e8:	85 b1       	in	r24, 0x05	; 5
  ea:	87 7f       	andi	r24, 0xF7	; 247
  ec:	85 b9       	out	0x05, r24	; 5
  ee:	08 95       	ret

000000f0 <green>:
}
void green()                 // function for green LED
{
	PORTB&=~(1<<PB5);
  f0:	85 b1       	in	r24, 0x05	; 5
  f2:	8f 7d       	andi	r24, 0xDF	; 223
  f4:	85 b9       	out	0x05, r24	; 5
	PORTB&=~(1<<PB4);
  f6:	85 b1       	in	r24, 0x05	; 5
  f8:	8f 7e       	andi	r24, 0xEF	; 239
  fa:	85 b9       	out	0x05, r24	; 5
	PORTB|=(1<<PB3);
  fc:	85 b1       	in	r24, 0x05	; 5
  fe:	88 60       	ori	r24, 0x08	; 8
 100:	85 b9       	out	0x05, r24	; 5
 102:	08 95       	ret

00000104 <clk>:
}
void clk()                  // function for clock-wise motor rotation
{
	PORTD|=(1<<PD5);
 104:	8b b1       	in	r24, 0x0b	; 11
 106:	80 62       	ori	r24, 0x20	; 32
 108:	8b b9       	out	0x0b, r24	; 11
	PORTD&=~(1<<PD6);
 10a:	8b b1       	in	r24, 0x0b	; 11
 10c:	8f 7b       	andi	r24, 0xBF	; 191
 10e:	8b b9       	out	0x0b, r24	; 11
 110:	08 95       	ret

00000112 <cclk>:
}
void cclk()                // function for anti clock-wise motor rotation
{
	PORTD&=~(1<<PD5);
 112:	8b b1       	in	r24, 0x0b	; 11
 114:	8f 7d       	andi	r24, 0xDF	; 223
 116:	8b b9       	out	0x0b, r24	; 11
	PORTD|=(1<<PD6);
 118:	8b b1       	in	r24, 0x0b	; 11
 11a:	80 64       	ori	r24, 0x40	; 64
 11c:	8b b9       	out	0x0b, r24	; 11
 11e:	08 95       	ret

00000120 <stp_motor>:
}
void stp_motor()           // function for stop motor rotation
{
	PORTD&=~(1<<PD5);
 120:	8b b1       	in	r24, 0x0b	; 11
 122:	8f 7d       	andi	r24, 0xDF	; 223
 124:	8b b9       	out	0x0b, r24	; 11
	PORTD&=~(1<<PD6);
 126:	8b b1       	in	r24, 0x0b	; 11
 128:	8f 7b       	andi	r24, 0xBF	; 191
 12a:	8b b9       	out	0x0b, r24	; 11
 12c:	08 95       	ret

0000012e <main>:
}

int main(void)
{
	
	TCNT0=0;                       // set TCNT0 initial value
 12e:	16 bc       	out	0x26, r1	; 38
	
	TCCR0A&=~(1<<WGM00);           // configure CTC mode
 130:	84 b5       	in	r24, 0x24	; 36
 132:	8e 7f       	andi	r24, 0xFE	; 254
 134:	84 bd       	out	0x24, r24	; 36
	TCCR0A|=(1<<WGM01);
 136:	84 b5       	in	r24, 0x24	; 36
 138:	82 60       	ori	r24, 0x02	; 2
 13a:	84 bd       	out	0x24, r24	; 36
	
	TCCR0B|=(1<<CS00|1<<CS01);     // configure prescalar 64
 13c:	85 b5       	in	r24, 0x25	; 37
 13e:	83 60       	ori	r24, 0x03	; 3
 140:	85 bd       	out	0x25, r24	; 37
	TCCR0B&=~(1<<CS02);
 142:	85 b5       	in	r24, 0x25	; 37
 144:	8b 7f       	andi	r24, 0xFB	; 251
 146:	85 bd       	out	0x25, r24	; 37
	
	OCR0A=249;                     // set OCR value range
 148:	89 ef       	ldi	r24, 0xF9	; 249
 14a:	87 bd       	out	0x27, r24	; 39
	
	EIMSK|=(1<<INT0);              // set external interrupt type
 14c:	8d b3       	in	r24, 0x1d	; 29
 14e:	81 60       	ori	r24, 0x01	; 1
 150:	8d bb       	out	0x1d, r24	; 29
	
	EICRA|=(1<<ISC00)|(1<<ISC01);  // configure interrupt sense control
 152:	e9 e6       	ldi	r30, 0x69	; 105
 154:	f0 e0       	ldi	r31, 0x00	; 0
 156:	80 81       	ld	r24, Z
 158:	83 60       	ori	r24, 0x03	; 3
 15a:	80 83       	st	Z, r24
	
	EIFR|=(1<<INTF0);              // set flag=0
 15c:	8c b3       	in	r24, 0x1c	; 28
 15e:	81 60       	ori	r24, 0x01	; 1
 160:	8c bb       	out	0x1c, r24	; 28
	
	
	DDRB|=(1<<DDB5)|(1<<DDB4)|(1<<DDB3);    // configure data direction registers(DDB5,DDB4 And DDB3)
 162:	84 b1       	in	r24, 0x04	; 4
 164:	88 63       	ori	r24, 0x38	; 56
 166:	84 b9       	out	0x04, r24	; 4
	DDRD|=(1<<DDD5)|(1<<DDD6);
 168:	8a b1       	in	r24, 0x0a	; 10
 16a:	80 66       	ori	r24, 0x60	; 96
 16c:	8a b9       	out	0x0a, r24	; 10
	
	sei();                                  // enable global interrupt
 16e:	78 94       	sei
	
	while (1)
	{
		
		
		if (int0_flag == 1)              // Traffic light rule after interrupt occur 
 170:	80 91 00 01 	lds	r24, 0x0100	; 0x800100 <__DATA_REGION_ORIGIN__>
 174:	81 30       	cpi	r24, 0x01	; 1
 176:	79 f5       	brne	.+94     	; 0x1d6 <main+0xa8>
		{
			clk();
 178:	0e 94 82 00 	call	0x104	; 0x104 <clk>
			red();
 17c:	0e 94 64 00 	call	0xc8	; 0xc8 <red>
			delay(6000);
 180:	80 e7       	ldi	r24, 0x70	; 112
 182:	97 e1       	ldi	r25, 0x17	; 23
 184:	0e 94 48 00 	call	0x90	; 0x90 <delay>
			//_delay_ms(5000);
			red();
 188:	0e 94 64 00 	call	0xc8	; 0xc8 <red>
			stp_motor();
 18c:	0e 94 90 00 	call	0x120	; 0x120 <stp_motor>
			delay(5000);
 190:	88 e8       	ldi	r24, 0x88	; 136
 192:	93 e1       	ldi	r25, 0x13	; 19
 194:	0e 94 48 00 	call	0x90	; 0x90 <delay>
			//_delay_ms(5000);
			cclk();
 198:	0e 94 89 00 	call	0x112	; 0x112 <cclk>
			red();
 19c:	0e 94 64 00 	call	0xc8	; 0xc8 <red>
			delay(6000);
 1a0:	80 e7       	ldi	r24, 0x70	; 112
 1a2:	97 e1       	ldi	r25, 0x17	; 23
 1a4:	0e 94 48 00 	call	0x90	; 0x90 <delay>
			//_delay_ms(5000);
			stp_motor();
 1a8:	0e 94 90 00 	call	0x120	; 0x120 <stp_motor>
			orange();
 1ac:	0e 94 6e 00 	call	0xdc	; 0xdc <orange>
			delay(5000);
 1b0:	88 e8       	ldi	r24, 0x88	; 136
 1b2:	93 e1       	ldi	r25, 0x13	; 19
 1b4:	0e 94 48 00 	call	0x90	; 0x90 <delay>
			//_delay_ms(3000);
			green();
 1b8:	0e 94 78 00 	call	0xf0	; 0xf0 <green>
			delay(3000);
 1bc:	88 eb       	ldi	r24, 0xB8	; 184
 1be:	9b e0       	ldi	r25, 0x0B	; 11
 1c0:	0e 94 48 00 	call	0x90	; 0x90 <delay>
			//_delay_ms(3000);
			orange();
 1c4:	0e 94 6e 00 	call	0xdc	; 0xdc <orange>
			delay(3000);
 1c8:	88 eb       	ldi	r24, 0xB8	; 184
 1ca:	9b e0       	ldi	r25, 0x0B	; 11
 1cc:	0e 94 48 00 	call	0x90	; 0x90 <delay>
			//_delay_ms(3000);
								
			int0_flag =0;           // flag changes to normal state
 1d0:	10 92 00 01 	sts	0x0100, r1	; 0x800100 <__DATA_REGION_ORIGIN__>
 1d4:	cd cf       	rjmp	.-102    	; 0x170 <main+0x42>

		}
		else
		{
			red();                 // Traffic light rule under normal conditions
 1d6:	0e 94 64 00 	call	0xc8	; 0xc8 <red>
			delay(3000);
 1da:	88 eb       	ldi	r24, 0xB8	; 184
 1dc:	9b e0       	ldi	r25, 0x0B	; 11
 1de:	0e 94 48 00 	call	0x90	; 0x90 <delay>
			//_delay_ms(3000);
			orange();
 1e2:	0e 94 6e 00 	call	0xdc	; 0xdc <orange>
			delay(3000);
 1e6:	88 eb       	ldi	r24, 0xB8	; 184
 1e8:	9b e0       	ldi	r25, 0x0B	; 11
 1ea:	0e 94 48 00 	call	0x90	; 0x90 <delay>
			//_delay_ms(3000);
			green();                           
 1ee:	0e 94 78 00 	call	0xf0	; 0xf0 <green>
			delay(3000);
 1f2:	88 eb       	ldi	r24, 0xB8	; 184
 1f4:	9b e0       	ldi	r25, 0x0B	; 11
 1f6:	0e 94 48 00 	call	0x90	; 0x90 <delay>
			//_delay_ms(3000);
			orange();
 1fa:	0e 94 6e 00 	call	0xdc	; 0xdc <orange>
			delay(3000);
 1fe:	88 eb       	ldi	r24, 0xB8	; 184
 200:	9b e0       	ldi	r25, 0x0B	; 11
 202:	0e 94 48 00 	call	0x90	; 0x90 <delay>
 206:	b4 cf       	rjmp	.-152    	; 0x170 <main+0x42>

00000208 <_exit>:
 208:	f8 94       	cli

0000020a <__stop_program>:
 20a:	ff cf       	rjmp	.-2      	; 0x20a <__stop_program>
