
traffic_interrupt.elf:     file format elf32-avr

Sections:
Idx Name          Size      VMA       LMA       File off  Algn
  0 .data         00000000  00800100  00800100  00000232  2**0
                  CONTENTS, ALLOC, LOAD, DATA
  1 .text         000001be  00000000  00000000  00000074  2**1
                  CONTENTS, ALLOC, LOAD, READONLY, CODE
  2 .bss          00000001  00800100  00800100  00000232  2**0
                  ALLOC
  3 .comment      00000030  00000000  00000000  00000232  2**0
                  CONTENTS, READONLY
  4 .note.gnu.avr.deviceinfo 00000040  00000000  00000000  00000264  2**2
                  CONTENTS, READONLY
  5 .debug_aranges 00000048  00000000  00000000  000002a4  2**0
                  CONTENTS, READONLY, DEBUGGING
  6 .debug_info   00000909  00000000  00000000  000002ec  2**0
                  CONTENTS, READONLY, DEBUGGING
  7 .debug_abbrev 000006ea  00000000  00000000  00000bf5  2**0
                  CONTENTS, READONLY, DEBUGGING
  8 .debug_line   00000372  00000000  00000000  000012df  2**0
                  CONTENTS, READONLY, DEBUGGING
  9 .debug_frame  00000084  00000000  00000000  00001654  2**2
                  CONTENTS, READONLY, DEBUGGING
 10 .debug_str    00000429  00000000  00000000  000016d8  2**0
                  CONTENTS, READONLY, DEBUGGING
 11 .debug_loc    000001a4  00000000  00000000  00001b01  2**0
                  CONTENTS, READONLY, DEBUGGING
 12 .debug_ranges 00000038  00000000  00000000  00001ca5  2**0
                  CONTENTS, READONLY, DEBUGGING

Disassembly of section .text:

00000000 <__vectors>:
   0:	0c 94 34 00 	jmp	0x68	; 0x68 <__ctors_end>
   4:	0c 94 5e 00 	jmp	0xbc	; 0xbc <__vector_1>
   8:	0c 94 46 00 	jmp	0x8c	; 0x8c <__bad_interrupt>
   c:	0c 94 46 00 	jmp	0x8c	; 0x8c <__bad_interrupt>
  10:	0c 94 46 00 	jmp	0x8c	; 0x8c <__bad_interrupt>
  14:	0c 94 46 00 	jmp	0x8c	; 0x8c <__bad_interrupt>
  18:	0c 94 46 00 	jmp	0x8c	; 0x8c <__bad_interrupt>
  1c:	0c 94 46 00 	jmp	0x8c	; 0x8c <__bad_interrupt>
  20:	0c 94 46 00 	jmp	0x8c	; 0x8c <__bad_interrupt>
  24:	0c 94 46 00 	jmp	0x8c	; 0x8c <__bad_interrupt>
  28:	0c 94 46 00 	jmp	0x8c	; 0x8c <__bad_interrupt>
  2c:	0c 94 46 00 	jmp	0x8c	; 0x8c <__bad_interrupt>
  30:	0c 94 46 00 	jmp	0x8c	; 0x8c <__bad_interrupt>
  34:	0c 94 46 00 	jmp	0x8c	; 0x8c <__bad_interrupt>
  38:	0c 94 46 00 	jmp	0x8c	; 0x8c <__bad_interrupt>
  3c:	0c 94 46 00 	jmp	0x8c	; 0x8c <__bad_interrupt>
  40:	0c 94 46 00 	jmp	0x8c	; 0x8c <__bad_interrupt>
  44:	0c 94 46 00 	jmp	0x8c	; 0x8c <__bad_interrupt>
  48:	0c 94 46 00 	jmp	0x8c	; 0x8c <__bad_interrupt>
  4c:	0c 94 46 00 	jmp	0x8c	; 0x8c <__bad_interrupt>
  50:	0c 94 46 00 	jmp	0x8c	; 0x8c <__bad_interrupt>
  54:	0c 94 46 00 	jmp	0x8c	; 0x8c <__bad_interrupt>
  58:	0c 94 46 00 	jmp	0x8c	; 0x8c <__bad_interrupt>
  5c:	0c 94 46 00 	jmp	0x8c	; 0x8c <__bad_interrupt>
  60:	0c 94 46 00 	jmp	0x8c	; 0x8c <__bad_interrupt>
  64:	0c 94 46 00 	jmp	0x8c	; 0x8c <__bad_interrupt>

00000068 <__ctors_end>:
  68:	11 24       	eor	r1, r1
  6a:	1f be       	out	0x3f, r1	; 63
  6c:	cf ef       	ldi	r28, 0xFF	; 255
  6e:	d8 e0       	ldi	r29, 0x08	; 8
  70:	de bf       	out	0x3e, r29	; 62
  72:	cd bf       	out	0x3d, r28	; 61

00000074 <__do_clear_bss>:
  74:	21 e0       	ldi	r18, 0x01	; 1
  76:	a0 e0       	ldi	r26, 0x00	; 0
  78:	b1 e0       	ldi	r27, 0x01	; 1
  7a:	01 c0       	rjmp	.+2      	; 0x7e <.do_clear_bss_start>

0000007c <.do_clear_bss_loop>:
  7c:	1d 92       	st	X+, r1

0000007e <.do_clear_bss_start>:
  7e:	a1 30       	cpi	r26, 0x01	; 1
  80:	b2 07       	cpc	r27, r18
  82:	e1 f7       	brne	.-8      	; 0x7c <.do_clear_bss_loop>
  84:	0e 94 6d 00 	call	0xda	; 0xda <main>
  88:	0c 94 dd 00 	jmp	0x1ba	; 0x1ba <_exit>

0000008c <__bad_interrupt>:
  8c:	0c 94 00 00 	jmp	0	; 0x0 <__vectors>

00000090 <clearlight>:

volatile uint8_t emergency_flag = 0;

void clearlight(void)
{
	PORTB &= ~((1 << PB1) | (1 << PB2) | (1 << PB3));
  90:	85 b1       	in	r24, 0x05	; 5
  92:	81 7f       	andi	r24, 0xF1	; 241
  94:	85 b9       	out	0x05, r24	; 5
  96:	08 95       	ret

00000098 <greenlight>:
}

void greenlight(void)
{
	clearlight();
  98:	0e 94 48 00 	call	0x90	; 0x90 <clearlight>
	PORTB |= (1 << PB1);
  9c:	85 b1       	in	r24, 0x05	; 5
  9e:	82 60       	ori	r24, 0x02	; 2
  a0:	85 b9       	out	0x05, r24	; 5
  a2:	08 95       	ret

000000a4 <orangelight>:
}

void orangelight(void)
{
	clearlight();
  a4:	0e 94 48 00 	call	0x90	; 0x90 <clearlight>
	PORTB |= (1 << PB2);
  a8:	85 b1       	in	r24, 0x05	; 5
  aa:	84 60       	ori	r24, 0x04	; 4
  ac:	85 b9       	out	0x05, r24	; 5
  ae:	08 95       	ret

000000b0 <redlight>:
}

void redlight(void)
{
	clearlight();
  b0:	0e 94 48 00 	call	0x90	; 0x90 <clearlight>
	PORTB |= (1 << PB3);
  b4:	85 b1       	in	r24, 0x05	; 5
  b6:	88 60       	ori	r24, 0x08	; 8
  b8:	85 b9       	out	0x05, r24	; 5
  ba:	08 95       	ret

000000bc <__vector_1>:
}

ISR(INT0_vect)
{
  bc:	1f 92       	push	r1
  be:	0f 92       	push	r0
  c0:	0f b6       	in	r0, 0x3f	; 63
  c2:	0f 92       	push	r0
  c4:	11 24       	eor	r1, r1
  c6:	8f 93       	push	r24
	emergency_flag = 1;
  c8:	81 e0       	ldi	r24, 0x01	; 1
  ca:	80 93 00 01 	sts	0x0100, r24	; 0x800100 <__DATA_REGION_ORIGIN__>
}
  ce:	8f 91       	pop	r24
  d0:	0f 90       	pop	r0
  d2:	0f be       	out	0x3f, r0	; 63
  d4:	0f 90       	pop	r0
  d6:	1f 90       	pop	r1
  d8:	18 95       	reti

000000da <main>:

int main(void)
{
	DDRB |= (1 << DDB1) | (1 << DDB2) | (1 << DDB3);
  da:	84 b1       	in	r24, 0x04	; 4
  dc:	8e 60       	ori	r24, 0x0E	; 14
  de:	84 b9       	out	0x04, r24	; 4
	DDRD &= ~(1 << DDD2);
  e0:	8a b1       	in	r24, 0x0a	; 10
  e2:	8b 7f       	andi	r24, 0xFB	; 251
  e4:	8a b9       	out	0x0a, r24	; 10
	PORTD |= (1 << PD2);
  e6:	8b b1       	in	r24, 0x0b	; 11
  e8:	84 60       	ori	r24, 0x04	; 4
  ea:	8b b9       	out	0x0b, r24	; 11

	EICRA &= ~(1 << ISC00);
  ec:	e9 e6       	ldi	r30, 0x69	; 105
  ee:	f0 e0       	ldi	r31, 0x00	; 0
  f0:	80 81       	ld	r24, Z
  f2:	8e 7f       	andi	r24, 0xFE	; 254
  f4:	80 83       	st	Z, r24
	EICRA |= (1 << ISC01);     // falling edge
  f6:	80 81       	ld	r24, Z
  f8:	82 60       	ori	r24, 0x02	; 2
  fa:	80 83       	st	Z, r24
	EIMSK |= (1 << INT0);
  fc:	8d b3       	in	r24, 0x1d	; 29
  fe:	81 60       	ori	r24, 0x01	; 1
 100:	8d bb       	out	0x1d, r24	; 29
	sei();
 102:	78 94       	sei

	while (1)
	{
		greenlight();
 104:	0e 94 4c 00 	call	0x98	; 0x98 <greenlight>
	#else
		//round up by default
		__ticks_dc = (uint32_t)(ceil(fabs(__tmp)));
	#endif

	__builtin_avr_delay_cycles(__ticks_dc);
 108:	2a ea       	ldi	r18, 0xAA	; 170
 10a:	36 ee       	ldi	r19, 0xE6	; 230
 10c:	86 e9       	ldi	r24, 0x96	; 150
 10e:	91 e0       	ldi	r25, 0x01	; 1
 110:	21 50       	subi	r18, 0x01	; 1
 112:	30 40       	sbci	r19, 0x00	; 0
 114:	80 40       	sbci	r24, 0x00	; 0
 116:	90 40       	sbci	r25, 0x00	; 0
 118:	d9 f7       	brne	.-10     	; 0x110 <main+0x36>
 11a:	00 00       	nop
		_delay_ms(10000);
		if (emergency_flag)
 11c:	80 91 00 01 	lds	r24, 0x0100	; 0x800100 <__DATA_REGION_ORIGIN__>
 120:	88 23       	and	r24, r24
 122:	71 f0       	breq	.+28     	; 0x140 <main+0x66>
		{
			emergency_flag = 0;
 124:	10 92 00 01 	sts	0x0100, r1	; 0x800100 <__DATA_REGION_ORIGIN__>
			greenlight();
 128:	0e 94 4c 00 	call	0x98	; 0x98 <greenlight>
 12c:	2a ea       	ldi	r18, 0xAA	; 170
 12e:	36 ee       	ldi	r19, 0xE6	; 230
 130:	86 e9       	ldi	r24, 0x96	; 150
 132:	91 e0       	ldi	r25, 0x01	; 1
 134:	21 50       	subi	r18, 0x01	; 1
 136:	30 40       	sbci	r19, 0x00	; 0
 138:	80 40       	sbci	r24, 0x00	; 0
 13a:	90 40       	sbci	r25, 0x00	; 0
 13c:	d9 f7       	brne	.-10     	; 0x134 <main+0x5a>
 13e:	00 00       	nop
			_delay_ms(10000);
		}

		orangelight();
 140:	0e 94 52 00 	call	0xa4	; 0xa4 <orangelight>
 144:	2f ef       	ldi	r18, 0xFF	; 255
 146:	3b e7       	ldi	r19, 0x7B	; 123
 148:	82 e9       	ldi	r24, 0x92	; 146
 14a:	21 50       	subi	r18, 0x01	; 1
 14c:	30 40       	sbci	r19, 0x00	; 0
 14e:	80 40       	sbci	r24, 0x00	; 0
 150:	e1 f7       	brne	.-8      	; 0x14a <main+0x70>
 152:	00 c0       	rjmp	.+0      	; 0x154 <main+0x7a>
 154:	00 00       	nop
		_delay_ms(3000);
		if (emergency_flag)
 156:	80 91 00 01 	lds	r24, 0x0100	; 0x800100 <__DATA_REGION_ORIGIN__>
 15a:	88 23       	and	r24, r24
 15c:	71 f0       	breq	.+28     	; 0x17a <main+0xa0>
		{
			emergency_flag = 0;
 15e:	10 92 00 01 	sts	0x0100, r1	; 0x800100 <__DATA_REGION_ORIGIN__>
			greenlight();
 162:	0e 94 4c 00 	call	0x98	; 0x98 <greenlight>
 166:	9a ea       	ldi	r25, 0xAA	; 170
 168:	26 ee       	ldi	r18, 0xE6	; 230
 16a:	36 e9       	ldi	r19, 0x96	; 150
 16c:	81 e0       	ldi	r24, 0x01	; 1
 16e:	91 50       	subi	r25, 0x01	; 1
 170:	20 40       	sbci	r18, 0x00	; 0
 172:	30 40       	sbci	r19, 0x00	; 0
 174:	80 40       	sbci	r24, 0x00	; 0
 176:	d9 f7       	brne	.-10     	; 0x16e <main+0x94>
 178:	00 00       	nop
			_delay_ms(10000);
		}

		redlight();
 17a:	0e 94 58 00 	call	0xb0	; 0xb0 <redlight>
 17e:	9a ea       	ldi	r25, 0xAA	; 170
 180:	26 ee       	ldi	r18, 0xE6	; 230
 182:	36 e9       	ldi	r19, 0x96	; 150
 184:	81 e0       	ldi	r24, 0x01	; 1
 186:	91 50       	subi	r25, 0x01	; 1
 188:	20 40       	sbci	r18, 0x00	; 0
 18a:	30 40       	sbci	r19, 0x00	; 0
 18c:	80 40       	sbci	r24, 0x00	; 0
 18e:	d9 f7       	brne	.-10     	; 0x186 <main+0xac>
 190:	00 00       	nop
		_delay_ms(10000);
		if (emergency_flag)
 192:	80 91 00 01 	lds	r24, 0x0100	; 0x800100 <__DATA_REGION_ORIGIN__>
 196:	88 23       	and	r24, r24
 198:	09 f4       	brne	.+2      	; 0x19c <main+0xc2>
 19a:	b4 cf       	rjmp	.-152    	; 0x104 <main+0x2a>
		{
			emergency_flag = 0;
 19c:	10 92 00 01 	sts	0x0100, r1	; 0x800100 <__DATA_REGION_ORIGIN__>
			greenlight();
 1a0:	0e 94 4c 00 	call	0x98	; 0x98 <greenlight>
 1a4:	9a ea       	ldi	r25, 0xAA	; 170
 1a6:	26 ee       	ldi	r18, 0xE6	; 230
 1a8:	36 e9       	ldi	r19, 0x96	; 150
 1aa:	81 e0       	ldi	r24, 0x01	; 1
 1ac:	91 50       	subi	r25, 0x01	; 1
 1ae:	20 40       	sbci	r18, 0x00	; 0
 1b0:	30 40       	sbci	r19, 0x00	; 0
 1b2:	80 40       	sbci	r24, 0x00	; 0
 1b4:	d9 f7       	brne	.-10     	; 0x1ac <main+0xd2>
 1b6:	00 00       	nop
 1b8:	a5 cf       	rjmp	.-182    	; 0x104 <main+0x2a>

000001ba <_exit>:
 1ba:	f8 94       	cli

000001bc <__stop_program>:
 1bc:	ff cf       	rjmp	.-2      	; 0x1bc <__stop_program>
